target datalayout = "e-m:e-p270:32:32-p271:32:32-p272:64:64-i64:64-i128:128-f80:128-n8:16:32:64-S128"
target triple = "x86_64-pc-linux-gnu"

%struct.EState = type { i32, i32, ptr, ptr, ptr, i32, ptr, ptr, ptr, ptr, ptr, ptr, ptr, ptr, ptr, ptr, i32, ptr, ptr, ptr, ptr, ptr, ptr, ptr, ptr, ptr, ptr, i64, i64, i32, i32, i8, ptr, ptr, ptr, ptr, ptr, i8, i32, i32, ptr, i32, ptr, ptr, ptr, ptr }
%struct.ForEachState = type { ptr, i32 }
%struct.List = type { i32, i32, i32, ptr, [0 x %union.ListCell] }
%union.ListCell = type { ptr }
%struct.EPQState = type { ptr, i32, ptr, ptr, ptr, ptr, ptr, ptr, ptr, ptr, ptr, ptr, ptr }

@CurrentMemoryContext = external global ptr, align 8

; Function Attrs: inlinehint nounwind uwtable
define internal ptr @MemoryContextSwitchTo(ptr noundef %0) #3 {
  %2 = alloca ptr, align 8
  %3 = alloca ptr, align 8
  store ptr %0, ptr %2, align 8
  call void @llvm.lifetime.start.p0(i64 8, ptr %3) #9
  %4 = load ptr, ptr @CurrentMemoryContext, align 8
  store ptr %4, ptr %3, align 8
  %5 = load ptr, ptr %2, align 8
  store ptr %5, ptr @CurrentMemoryContext, align 8
  %6 = load ptr, ptr %3, align 8
  call void @llvm.lifetime.end.p0(i64 8, ptr %3) #9
  ret ptr %6
}

; Function Attrs: nounwind uwtable
define dso_local void @EvalPlanQualEnd(ptr noundef %0) #0 {
  %2 = alloca ptr, align 8
  %3 = alloca ptr, align 8
  %4 = alloca i32, align 4
  %5 = alloca ptr, align 8
  %6 = alloca ptr, align 8
  %7 = alloca i32, align 4
  %8 = alloca %struct.ForEachState, align 8
  %9 = alloca ptr, align 8
  store ptr %0, ptr %2, align 8
  call void @llvm.lifetime.start.p0(i64 8, ptr %3) #9
  %10 = load ptr, ptr %2, align 8
  %11 = getelementptr inbounds nuw %struct.EPQState, ptr %10, i32 0, i32 8
  %12 = load ptr, ptr %11, align 8
  store ptr %12, ptr %3, align 8
  call void @llvm.lifetime.start.p0(i64 4, ptr %4) #9
  call void @llvm.lifetime.start.p0(i64 8, ptr %5) #9
  call void @llvm.lifetime.start.p0(i64 8, ptr %6) #9
  %13 = load ptr, ptr %2, align 8
  %14 = getelementptr inbounds nuw %struct.EPQState, ptr %13, i32 0, i32 0
  %15 = load ptr, ptr %14, align 8
  %16 = getelementptr inbounds nuw %struct.EState, ptr %15, i32 0, i32 5
  %17 = load i32, ptr %16, align 8
  store i32 %17, ptr %4, align 4
  %18 = load ptr, ptr %2, align 8
  %19 = getelementptr inbounds nuw %struct.EPQState, ptr %18, i32 0, i32 3
  %20 = load ptr, ptr %19, align 8
  %21 = icmp ne ptr %20, null
  br i1 %21, label %22, label %34

22:                                               ; preds = %1
  %23 = load ptr, ptr %2, align 8
  %24 = getelementptr inbounds nuw %struct.EPQState, ptr %23, i32 0, i32 4
  %25 = load ptr, ptr %24, align 8
  %26 = load i32, ptr %4, align 4
  %27 = zext i32 %26 to i64
  %28 = mul i64 %27, 8
  call void @llvm.memset.p0.i64(ptr align 8 %25, i8 0, i64 %28, i1 false)
  %29 = load ptr, ptr %2, align 8
  %30 = getelementptr inbounds nuw %struct.EPQState, ptr %29, i32 0, i32 3
  %31 = load ptr, ptr %30, align 8
  call void @ExecResetTupleTable(ptr noundef %31, i1 noundef zeroext true)
  %32 = load ptr, ptr %2, align 8
  %33 = getelementptr inbounds nuw %struct.EPQState, ptr %32, i32 0, i32 3
  store ptr null, ptr %33, align 8
  br label %34

34:                                               ; preds = %22, %1
  %35 = load ptr, ptr %3, align 8
  %36 = icmp eq ptr %35, null
  br i1 %36, label %37, label %38

37:                                               ; preds = %34
  store i32 1, ptr %7, align 4
  br label %106

38:                                               ; preds = %34
  %39 = load ptr, ptr %3, align 8
  %40 = getelementptr inbounds nuw %struct.EState, ptr %39, i32 0, i32 25
  %41 = load ptr, ptr %40, align 8
  %42 = call ptr @MemoryContextSwitchTo(ptr noundef %41)
  store ptr %42, ptr %5, align 8
  %43 = load ptr, ptr %2, align 8
  %44 = getelementptr inbounds nuw %struct.EPQState, ptr %43, i32 0, i32 12
  %45 = load ptr, ptr %44, align 8
  call void @ExecEndNode(ptr noundef %45)
  call void @llvm.lifetime.start.p0(i64 16, ptr %8) #9
  %46 = getelementptr inbounds nuw %struct.ForEachState, ptr %8, i32 0, i32 0
  %47 = load ptr, ptr %3, align 8
  %48 = getelementptr inbounds nuw %struct.EState, ptr %47, i32 0, i32 33
  %49 = load ptr, ptr %48, align 8
  store ptr %49, ptr %46, align 8
  %50 = getelementptr inbounds nuw %struct.ForEachState, ptr %8, i32 0, i32 1
  store i32 0, ptr %50, align 8
  %51 = getelementptr i8, ptr %8, i64 12
  call void @llvm.memset.p0.i64(ptr align 4 %51, i8 0, i64 4, i1 false)
  br label %52

52:                                               ; preds = %82, %38
  %53 = getelementptr inbounds nuw %struct.ForEachState, ptr %8, i32 0, i32 0
  %54 = load ptr, ptr %53, align 8
  %55 = icmp ne ptr %54, null
  br i1 %55, label %56, label %73

56:                                               ; preds = %52
  %57 = getelementptr inbounds nuw %struct.ForEachState, ptr %8, i32 0, i32 1
  %58 = load i32, ptr %57, align 8
  %59 = getelementptr inbounds nuw %struct.ForEachState, ptr %8, i32 0, i32 0
  %60 = load ptr, ptr %59, align 8
  %61 = getelementptr inbounds nuw %struct.List, ptr %60, i32 0, i32 1
  %62 = load i32, ptr %61, align 4
  %63 = icmp slt i32 %58, %62
  br i1 %63, label %64, label %73

64:                                               ; preds = %56
  %65 = getelementptr inbounds nuw %struct.ForEachState, ptr %8, i32 0, i32 0
  %66 = load ptr, ptr %65, align 8
  %67 = getelementptr inbounds nuw %struct.List, ptr %66, i32 0, i32 3
  %68 = load ptr, ptr %67, align 8
  %69 = getelementptr inbounds nuw %struct.ForEachState, ptr %8, i32 0, i32 1
  %70 = load i32, ptr %69, align 8
  %71 = sext i32 %70 to i64
  %72 = getelementptr inbounds %union.ListCell, ptr %68, i64 %71
  store ptr %72, ptr %6, align 8
  br label %74

73:                                               ; preds = %56, %52
  store ptr null, ptr %6, align 8
  br label %74

74:                                               ; preds = %73, %64
  %75 = phi i32 [ 1, %64 ], [ 0, %73 ]
  %76 = icmp ne i32 %75, 0
  br i1 %76, label %78, label %77

77:                                               ; preds = %74
  store i32 2, ptr %7, align 4
  call void @llvm.lifetime.end.p0(i64 16, ptr %8) #9
  br label %86

78:                                               ; preds = %74
  call void @llvm.lifetime.start.p0(i64 8, ptr %9) #9
  %79 = load ptr, ptr %6, align 8
  %80 = load ptr, ptr %79, align 8
  store ptr %80, ptr %9, align 8
  %81 = load ptr, ptr %9, align 8
  call void @ExecEndNode(ptr noundef %81)
  call void @llvm.lifetime.end.p0(i64 8, ptr %9) #9
  br label %82

82:                                               ; preds = %78
  %83 = getelementptr inbounds nuw %struct.ForEachState, ptr %8, i32 0, i32 1
  %84 = load i32, ptr %83, align 8
  %85 = add i32 %84, 1
  store i32 %85, ptr %83, align 8
  br label %52, !llvm.loop !30

86:                                               ; preds = %77
  %87 = load ptr, ptr %3, align 8
  %88 = getelementptr inbounds nuw %struct.EState, ptr %87, i32 0, i32 26
  %89 = load ptr, ptr %88, align 8
  call void @ExecResetTupleTable(ptr noundef %89, i1 noundef zeroext false)
  %90 = load ptr, ptr %3, align 8
  call void @ExecCloseResultRelations(ptr noundef %90)
  %91 = load ptr, ptr %5, align 8
  %92 = call ptr @MemoryContextSwitchTo(ptr noundef %91)
  %93 = load ptr, ptr %3, align 8
  call void @FreeExecutorState(ptr noundef %93)
  %94 = load ptr, ptr %2, align 8
  %95 = getelementptr inbounds nuw %struct.EPQState, ptr %94, i32 0, i32 7
  store ptr null, ptr %95, align 8
  %96 = load ptr, ptr %2, align 8
  %97 = getelementptr inbounds nuw %struct.EPQState, ptr %96, i32 0, i32 8
  store ptr null, ptr %97, align 8
  %98 = load ptr, ptr %2, align 8
  %99 = getelementptr inbounds nuw %struct.EPQState, ptr %98, i32 0, i32 12
  store ptr null, ptr %99, align 8
  %100 = load ptr, ptr %2, align 8
  %101 = getelementptr inbounds nuw %struct.EPQState, ptr %100, i32 0, i32 9
  store ptr null, ptr %101, align 8
  %102 = load ptr, ptr %2, align 8
  %103 = getelementptr inbounds nuw %struct.EPQState, ptr %102, i32 0, i32 10
  store ptr null, ptr %103, align 8
  %104 = load ptr, ptr %2, align 8
  %105 = getelementptr inbounds nuw %struct.EPQState, ptr %104, i32 0, i32 11
  store ptr null, ptr %105, align 8
  store i32 0, ptr %7, align 4
  br label %106

106:                                              ; preds = %86, %37
  call void @llvm.lifetime.end.p0(i64 8, ptr %6) #9
  call void @llvm.lifetime.end.p0(i64 8, ptr %5) #9
  call void @llvm.lifetime.end.p0(i64 4, ptr %4) #9
  call void @llvm.lifetime.end.p0(i64 8, ptr %3) #9
  %107 = load i32, ptr %7, align 4
  switch i32 %107, label %109 [
    i32 0, label %108
    i32 1, label %108
  ]

108:                                              ; preds = %106, %106
  ret void

109:                                              ; preds = %106
  unreachable
}