; Function Attrs: nounwind uwtable
define dso_local void @EvalPlanQualEnd(ptr noundef captures(none) %0) local_unnamed_addr #0 {
  %2 = getelementptr inbounds nuw i8, ptr %0, i64 64
  %3 = load ptr, ptr %2, align 8
  %4 = getelementptr inbounds nuw i8, ptr %0, i64 24
  %5 = load ptr, ptr %4, align 8
  %.not = icmp eq ptr %5, null
  br i1 %.not, label %15, label %6

6:                                                ; preds = %1
  %7 = load ptr, ptr %0, align 8
  %8 = getelementptr inbounds nuw i8, ptr %7, i64 32
  %9 = load i32, ptr %8, align 8
  %10 = getelementptr inbounds nuw i8, ptr %0, i64 32
  %11 = load ptr, ptr %10, align 8
  %12 = zext i32 %9 to i64
  %13 = shl nuw nsw i64 %12, 3
  tail call void @llvm.memset.p0.i64(ptr align 8 %11, i8 0, i64 %13, i1 false)
  %14 = load ptr, ptr %4, align 8
  tail call void @ExecResetTupleTable(ptr noundef %14, i1 noundef zeroext true) #9
  store ptr null, ptr %4, align 8
  br label %15

15:                                               ; preds = %6, %1
  %16 = icmp eq ptr %3, null
  br i1 %16, label %38, label %17

17:                                               ; preds = %15
  %18 = getelementptr inbounds nuw i8, ptr %3, i64 192
  %19 = load ptr, ptr %18, align 8
  %20 = load ptr, ptr @CurrentMemoryContext, align 8
  store ptr %19, ptr @CurrentMemoryContext, align 8
  %21 = getelementptr inbounds nuw i8, ptr %0, i64 96
  %22 = load ptr, ptr %21, align 8
  tail call void @ExecEndNode(ptr noundef %22) #9
  %23 = getelementptr inbounds nuw i8, ptr %3, i64 248
  %24 = load ptr, ptr %23, align 8
  %25 = getelementptr inbounds nuw i8, ptr %24, i64 4
  %.not28 = icmp eq ptr %24, null
  br i1 %.not28, label %._crit_edge, label %.lr.ph

.lr.ph:                                           ; preds = %17
  %26 = getelementptr inbounds nuw i8, ptr %24, i64 16
  %27 = load i32, ptr %25, align 4
  %28 = icmp sgt i32 %27, 0
  br i1 %28, label %.lr.ph35, label %._crit_edge

._crit_edge:                                      ; preds = %.lr.ph35, %.lr.ph, %17
  %29 = getelementptr inbounds nuw i8, ptr %3, i64 200
  %30 = load ptr, ptr %29, align 8
  tail call void @ExecResetTupleTable(ptr noundef %30, i1 noundef zeroext false) #9
  tail call void @ExecCloseResultRelations(ptr noundef nonnull %3)
  store ptr %20, ptr @CurrentMemoryContext, align 8
  tail call void @FreeExecutorState(ptr noundef nonnull %3) #9
  %31 = getelementptr inbounds nuw i8, ptr %0, i64 56
  tail call void @llvm.memset.p0.i64(ptr noundef nonnull align 8 dereferenceable(48) %31, i8 0, i64 48, i1 false)
  br label %38

.lr.ph35:                                         ; preds = %.lr.ph, %.lr.ph35
  %indvars.iv = phi i64 [ %indvars.iv.next, %.lr.ph35 ], [ 0, %.lr.ph ]
  %32 = load ptr, ptr %26, align 8
  %33 = getelementptr inbounds nuw %union.ListCell, ptr %32, i64 %indvars.iv
  %34 = load ptr, ptr %33, align 8
  tail call void @ExecEndNode(ptr noundef %34) #9
  %indvars.iv.next = add nuw nsw i64 %indvars.iv, 1
  %35 = load i32, ptr %25, align 4
  %36 = sext i32 %35 to i64
  %37 = icmp slt i64 %indvars.iv.next, %36
  br i1 %37, label %.lr.ph35, label %._crit_edge

38:                                               ; preds = %15, %._crit_edge
  ret void
}